; Function Attrs: mustprogress nofree norecurse nosync nounwind willreturn memory(read, inaccessiblemem: none) uwtable
define noundef i64 @_ZNK6casadi11Interpolant10coeff_sizeEv(ptr nocapture noundef nonnull readonly align 8 dereferenceable(1432) %0) local_unnamed_addr #5 align 2 {
  %2 = getelementptr inbounds i8, ptr %0, i64 1360
  %3 = getelementptr inbounds i8, ptr %0, i64 1320
  %4 = load i64, ptr %3, align 8
  %5 = getelementptr inbounds i8, ptr %0, i64 1368
  %6 = load ptr, ptr %5, align 8
  %7 = load ptr, ptr %2, align 8
  %8 = ptrtoint ptr %6 to i64
  %9 = ptrtoint ptr %7 to i64
  %10 = sub i64 %8, %9
  %11 = ashr exact i64 %10, 3
  %12 = add nsw i64 %11, -1
  %.not.i = icmp eq i64 %12, 0
  br i1 %.not.i, label %_ZN6casadi11Interpolant10coeff_sizeERKSt6vectorIxSaIxEEx.exit, label %.lr.ph.preheader.i

.lr.ph.preheader.i:                               ; preds = %1
  %.pre.i = load i64, ptr %7, align 8
  br label %.lr.ph.i

.lr.ph.i:                                         ; preds = %.lr.ph.i, %.lr.ph.preheader.i
  %13 = phi i64 [ %16, %.lr.ph.i ], [ %.pre.i, %.lr.ph.preheader.i ]
  %.011.i = phi i64 [ %14, %.lr.ph.i ], [ 0, %.lr.ph.preheader.i ]
  %.0910.i = phi i64 [ %18, %.lr.ph.i ], [ 1, %.lr.ph.preheader.i ]
  %14 = add nuw nsw i64 %.011.i, 1
  %15 = getelementptr inbounds i64, ptr %7, i64 %14
  %16 = load i64, ptr %15, align 8
  %17 = sub nsw i64 %16, %13
  %18 = mul nsw i64 %17, %.0910.i
  %exitcond.not.i = icmp eq i64 %14, %12
  br i1 %exitcond.not.i, label %_ZN6casadi11Interpolant10coeff_sizeERKSt6vectorIxSaIxEEx.exit, label %.lr.ph.i, !llvm.loop !37

_ZN6casadi11Interpolant10coeff_sizeERKSt6vectorIxSaIxEEx.exit: ; preds = %.lr.ph.i, %1
  %.09.lcssa.i = phi i64 [ 1, %1 ], [ %18, %.lr.ph.i ]
  %19 = mul nsw i64 %.09.lcssa.i, %4
  ret i64 %19
}